target datalayout = "e-m:e-p270:32:32-p271:32:32-p272:64:64-i64:64-i128:128-f80:128-n8:16:32:64-S128"
target triple = "x86_64-pc-linux-gnu"

%struct._lv_chart_t = type { %struct._lv_obj_t, %struct.lv_ll_t, %struct.lv_ll_t, [2 x i32], [2 x i32], [2 x i32], [2 x i32], i32, i32, i32, i32, i8 }
%struct._lv_obj_t = type { ptr, ptr, ptr, ptr, ptr, %struct.lv_area_t, i32, i16, i16 }
%struct.lv_area_t = type { i32, i32, i32, i32 }
%struct.lv_ll_t = type { i32, ptr, ptr }
%struct.lv_color_t = type { i8, i8, i8 }
%struct.lv_point_t = type { i32, i32 }
%struct._lv_chart_cursor_t = type { %struct.lv_point_t, i32, %struct.lv_color_t, ptr, i32, i8 }

; Function Attrs: nounwind uwtable
define ptr @lv_chart_add_cursor(ptr noundef %0, i24 %1, i32 noundef %2) #0 {
  %4 = alloca ptr, align 8
  %5 = alloca %struct.lv_color_t, align 1
  %6 = alloca ptr, align 8
  %7 = alloca i32, align 4
  %8 = alloca ptr, align 8
  %9 = alloca ptr, align 8
  %10 = alloca i32, align 4
  store i24 %1, ptr %5, align 1
  store ptr %0, ptr %6, align 8, !tbaa !3
  store i32 %2, ptr %7, align 4, !tbaa !7
  br label %11

11:                                               ; preds = %3
  br label %12

12:                                               ; preds = %11
  call void @llvm.lifetime.start.p0(i64 8, ptr %8) #5
  %13 = load ptr, ptr %6, align 8, !tbaa !3
  store ptr %13, ptr %8, align 8, !tbaa !3
  call void @llvm.lifetime.start.p0(i64 8, ptr %9) #5
  %14 = load ptr, ptr %8, align 8, !tbaa !3
  %15 = getelementptr inbounds nuw %struct._lv_chart_t, ptr %14, i32 0, i32 2
  %16 = call ptr @lv_ll_ins_head(ptr noundef %15)
  store ptr %16, ptr %9, align 8, !tbaa !3
  br label %17

17:                                               ; preds = %12
  %18 = load ptr, ptr %9, align 8, !tbaa !3
  %19 = icmp ne ptr %18, null
  br i1 %19, label %26, label %20

20:                                               ; preds = %17
  br label %21

21:                                               ; preds = %20
  br label %22

22:                                               ; preds = %21
  br label %23

23:                                               ; preds = %22
  br label %24

24:                                               ; preds = %25, %23
  br label %25

25:                                               ; preds = %24
  br label %24

26:                                               ; preds = %17
  br label %27

27:                                               ; preds = %26
  br label %28

28:                                               ; preds = %27
  %29 = load ptr, ptr %9, align 8, !tbaa !3
  %30 = icmp eq ptr %29, null
  br i1 %30, label %31, label %32

31:                                               ; preds = %28
  store ptr null, ptr %4, align 8
  store i32 1, ptr %10, align 4
  br label %48

32:                                               ; preds = %28
  %33 = load ptr, ptr %9, align 8, !tbaa !3
  %34 = getelementptr inbounds nuw %struct._lv_chart_cursor_t, ptr %33, i32 0, i32 0
  call void @lv_point_set(ptr noundef %34, i32 noundef 2147483647, i32 noundef 2147483647)
  %35 = load ptr, ptr %9, align 8, !tbaa !3
  %36 = getelementptr inbounds nuw %struct._lv_chart_cursor_t, ptr %35, i32 0, i32 1
  store i32 2147483647, ptr %36, align 8, !tbaa !49
  %37 = load ptr, ptr %9, align 8, !tbaa !3
  %38 = getelementptr inbounds nuw %struct._lv_chart_cursor_t, ptr %37, i32 0, i32 5
  %39 = load i8, ptr %38, align 4
  %40 = and i8 %39, -2
  %41 = or i8 %40, 0
  store i8 %41, ptr %38, align 4
  %42 = load ptr, ptr %9, align 8, !tbaa !3
  %43 = getelementptr inbounds nuw %struct._lv_chart_cursor_t, ptr %42, i32 0, i32 2
  call void @llvm.memcpy.p0.p0.i64(ptr align 4 %43, ptr align 1 %5, i64 3, i1 false), !tbaa.struct !41
  %44 = load i32, ptr %7, align 4, !tbaa !7
  %45 = load ptr, ptr %9, align 8, !tbaa !3
  %46 = getelementptr inbounds nuw %struct._lv_chart_cursor_t, ptr %45, i32 0, i32 4
  store i32 %44, ptr %46, align 8, !tbaa !51
  %47 = load ptr, ptr %9, align 8, !tbaa !3
  store ptr %47, ptr %4, align 8
  store i32 1, ptr %10, align 4
  br label %48

48:                                               ; preds = %32, %31
  call void @llvm.lifetime.end.p0(i64 8, ptr %9) #5
  call void @llvm.lifetime.end.p0(i64 8, ptr %8) #5
  %49 = load ptr, ptr %4, align 8
  ret ptr %49
}