; Function Attrs: nounwind uwtable
define nonnull ptr @lv_chart_add_cursor(ptr noundef %0, i24 %1, i32 noundef %2) local_unnamed_addr #0 {
  %4 = getelementptr inbounds nuw i8, ptr %0, i64 88
  %5 = tail call ptr @lv_ll_ins_head(ptr noundef nonnull %4) #8
  %.not = icmp eq ptr %5, null
  br i1 %.not, label %.preheader, label %6

.preheader:                                       ; preds = %3, %.preheader
  br label %.preheader

6:                                                ; preds = %3
  tail call void @lv_point_set(ptr noundef nonnull %5, i32 noundef 2147483647, i32 noundef 2147483647) #8
  %7 = getelementptr inbounds nuw i8, ptr %5, i64 8
  store i32 2147483647, ptr %7, align 8, !tbaa !50
  %8 = getelementptr inbounds nuw i8, ptr %5, i64 28
  %9 = load i8, ptr %8, align 4
  %10 = and i8 %9, -2
  store i8 %10, ptr %8, align 4
  %11 = getelementptr inbounds nuw i8, ptr %5, i64 12
  store i24 %1, ptr %11, align 4
  %12 = getelementptr inbounds nuw i8, ptr %5, i64 24
  store i32 %2, ptr %12, align 8, !tbaa !57
  ret ptr %5
}